target datalayout = "e-m:e-p270:32:32-p271:32:32-p272:64:64-i64:64-i128:128-f80:128-n8:16:32:64-S128"
target triple = "x86_64-pc-linux-gnu"

@H5_libinit_g = external global i8, align 1
@H5_libterm_g = external global i8, align 1
@.str = private unnamed_addr constant [97 x i8] c"generated/home/dtcxzyw/WorkSpace/Projects/compilers/llvm-opt-benchmark/bench/hdf5/hdf5/src/H5P.c\00", align 1
@H5E_FUNC_g = external global i64, align 8
@H5E_CANTINIT_g = external global i64, align 8
@.str.1 = private unnamed_addr constant [30 x i8] c"library initialization failed\00", align 1
@H5E_CANTSET_g = external global i64, align 8
@.str.2 = private unnamed_addr constant [22 x i8] c"can't set API context\00", align 1
@H5E_ARGS_g = external global i64, align 8
@H5E_BADTYPE_g = external global i64, align 8
@H5E_PLIST_g = external global i64, align 8
@H5E_CANTREGISTER_g = external global i64, align 8
@.str.18 = private unnamed_addr constant [20 x i8] c"not a property list\00", align 1
@.str.25 = private unnamed_addr constant [21 x i8] c"not a property class\00", align 1
@__func__.H5Pisa_class = private unnamed_addr constant [13 x i8] c"H5Pisa_class\00", align 1
@.str.40 = private unnamed_addr constant [40 x i8] c"unable to compare property list classes\00", align 1

; Function Attrs: nounwind uwtable
define i32 @H5Pisa_class(i64 noundef %0, i64 noundef %1) #0 {
  %3 = alloca i64, align 8
  %4 = alloca i64, align 8
  %5 = alloca i32, align 4
  %6 = alloca i8, align 1
  %7 = alloca i8, align 1
  store i64 %0, ptr %3, align 8
  store i64 %1, ptr %4, align 8
  store i8 0, ptr %6, align 1
  store i8 0, ptr %7, align 1
  %8 = load i8, ptr @H5_libinit_g, align 1
  %9 = trunc i8 %8 to i1
  br i1 %9, label %14, label %10

10:                                               ; preds = %2
  %11 = load i8, ptr @H5_libterm_g, align 1
  %12 = trunc i8 %11 to i1
  %13 = xor i1 %12, true
  br label %14

14:                                               ; preds = %10, %2
  %15 = phi i1 [ false, %2 ], [ %13, %10 ]
  %16 = xor i1 %15, true
  %17 = xor i1 %16, true
  %18 = zext i1 %17 to i32
  %19 = sext i32 %18 to i64
  %20 = icmp ne i64 %19, 0
  br i1 %20, label %21, label %45

21:                                               ; preds = %14
  %22 = call i32 @H5_init_library()
  %23 = icmp slt i32 %22, 0
  %24 = xor i1 %23, true
  %25 = xor i1 %24, true
  %26 = zext i1 %25 to i32
  %27 = sext i32 %26 to i64
  %28 = icmp ne i64 %27, 0
  br i1 %28, label %29, label %44

29:                                               ; preds = %21
  br label %30

30:                                               ; preds = %29
  br label %31

31:                                               ; preds = %30
  br label %32

32:                                               ; preds = %31
  %33 = load i64, ptr @H5E_FUNC_g, align 8
  %34 = load i64, ptr @H5E_CANTINIT_g, align 8
  %35 = call i32 (ptr, ptr, i32, i64, i64, ptr, ...) @H5E_printf_stack(ptr noundef @.str, ptr noundef @__func__.H5Pisa_class, i32 noundef 1063, i64 noundef %33, i64 noundef %34, ptr noundef @.str.1)
  br label %36

36:                                               ; preds = %32
  store i8 1, ptr %7, align 1
  %37 = load i8, ptr %7, align 1
  %38 = trunc i8 %37 to i1
  %39 = zext i1 %38 to i8
  store i8 %39, ptr %7, align 1
  br label %40

40:                                               ; preds = %36
  br label %41

41:                                               ; preds = %40
  store i32 -1, ptr %5, align 4
  br label %129

42:                                               ; No predecessors!
  br label %43

43:                                               ; preds = %42
  br label %44

44:                                               ; preds = %43, %21
  br label %45

45:                                               ; preds = %44, %14
  %46 = call i32 @H5CX_push()
  %47 = icmp slt i32 %46, 0
  %48 = xor i1 %47, true
  %49 = xor i1 %48, true
  %50 = zext i1 %49 to i32
  %51 = sext i32 %50 to i64
  %52 = icmp ne i64 %51, 0
  br i1 %52, label %53, label %68

53:                                               ; preds = %45
  br label %54

54:                                               ; preds = %53
  br label %55

55:                                               ; preds = %54
  br label %56

56:                                               ; preds = %55
  %57 = load i64, ptr @H5E_FUNC_g, align 8
  %58 = load i64, ptr @H5E_CANTSET_g, align 8
  %59 = call i32 (ptr, ptr, i32, i64, i64, ptr, ...) @H5E_printf_stack(ptr noundef @.str, ptr noundef @__func__.H5Pisa_class, i32 noundef 1063, i64 noundef %57, i64 noundef %58, ptr noundef @.str.2)
  br label %60

60:                                               ; preds = %56
  store i8 1, ptr %7, align 1
  %61 = load i8, ptr %7, align 1
  %62 = trunc i8 %61 to i1
  %63 = zext i1 %62 to i8
  store i8 %63, ptr %7, align 1
  br label %64

64:                                               ; preds = %60
  br label %65

65:                                               ; preds = %64
  store i32 -1, ptr %5, align 4
  br label %129

66:                                               ; No predecessors!
  br label %67

67:                                               ; preds = %66
  br label %69

68:                                               ; preds = %45
  store i8 1, ptr %6, align 1
  br label %69

69:                                               ; preds = %68, %67
  %70 = call i32 @H5E_clear_stack()
  %71 = load i64, ptr %3, align 8
  %72 = call i32 @H5I_get_type(i64 noundef %71)
  %73 = icmp ne i32 11, %72
  br i1 %73, label %74, label %89

74:                                               ; preds = %69
  br label %75

75:                                               ; preds = %74
  br label %76

76:                                               ; preds = %75
  br label %77

77:                                               ; preds = %76
  %78 = load i64, ptr @H5E_ARGS_g, align 8
  %79 = load i64, ptr @H5E_BADTYPE_g, align 8
  %80 = call i32 (ptr, ptr, i32, i64, i64, ptr, ...) @H5E_printf_stack(ptr noundef @.str, ptr noundef @__func__.H5Pisa_class, i32 noundef 1067, i64 noundef %78, i64 noundef %79, ptr noundef @.str.18)
  br label %81

81:                                               ; preds = %77
  store i8 1, ptr %7, align 1
  %82 = load i8, ptr %7, align 1
  %83 = trunc i8 %82 to i1
  %84 = zext i1 %83 to i8
  store i8 %84, ptr %7, align 1
  br label %85

85:                                               ; preds = %81
  br label %86

86:                                               ; preds = %85
  store i32 -1, ptr %5, align 4
  br label %129

87:                                               ; No predecessors!
  br label %88

88:                                               ; preds = %87
  br label %89

89:                                               ; preds = %88, %69
  %90 = load i64, ptr %4, align 8
  %91 = call i32 @H5I_get_type(i64 noundef %90)
  %92 = icmp ne i32 10, %91
  br i1 %92, label %93, label %108

93:                                               ; preds = %89
  br label %94

94:                                               ; preds = %93
  br label %95

95:                                               ; preds = %94
  br label %96

96:                                               ; preds = %95
  %97 = load i64, ptr @H5E_ARGS_g, align 8
  %98 = load i64, ptr @H5E_BADTYPE_g, align 8
  %99 = call i32 (ptr, ptr, i32, i64, i64, ptr, ...) @H5E_printf_stack(ptr noundef @.str, ptr noundef @__func__.H5Pisa_class, i32 noundef 1069, i64 noundef %97, i64 noundef %98, ptr noundef @.str.25)
  br label %100

100:                                              ; preds = %96
  store i8 1, ptr %7, align 1
  %101 = load i8, ptr %7, align 1
  %102 = trunc i8 %101 to i1
  %103 = zext i1 %102 to i8
  store i8 %103, ptr %7, align 1
  br label %104

104:                                              ; preds = %100
  br label %105

105:                                              ; preds = %104
  store i32 -1, ptr %5, align 4
  br label %129

106:                                              ; No predecessors!
  br label %107

107:                                              ; preds = %106
  br label %108

108:                                              ; preds = %107, %89
  %109 = load i64, ptr %3, align 8
  %110 = load i64, ptr %4, align 8
  %111 = call i32 @H5P_isa_class(i64 noundef %109, i64 noundef %110)
  store i32 %111, ptr %5, align 4
  %112 = icmp slt i32 %111, 0
  br i1 %112, label %113, label %128

113:                                              ; preds = %108
  br label %114

114:                                              ; preds = %113
  br label %115

115:                                              ; preds = %114
  br label %116

116:                                              ; preds = %115
  %117 = load i64, ptr @H5E_PLIST_g, align 8
  %118 = load i64, ptr @H5E_CANTREGISTER_g, align 8
  %119 = call i32 (ptr, ptr, i32, i64, i64, ptr, ...) @H5E_printf_stack(ptr noundef @.str, ptr noundef @__func__.H5Pisa_class, i32 noundef 1073, i64 noundef %117, i64 noundef %118, ptr noundef @.str.40)
  br label %120

120:                                              ; preds = %116
  store i8 1, ptr %7, align 1
  %121 = load i8, ptr %7, align 1
  %122 = trunc i8 %121 to i1
  %123 = zext i1 %122 to i8
  store i8 %123, ptr %7, align 1
  br label %124

124:                                              ; preds = %120
  br label %125

125:                                              ; preds = %124
  store i32 -1, ptr %5, align 4
  br label %129

126:                                              ; No predecessors!
  br label %127

127:                                              ; preds = %126
  br label %128

128:                                              ; preds = %127, %108
  br label %129

129:                                              ; preds = %128, %125, %105, %86, %65, %41
  %130 = load i8, ptr %6, align 1
  %131 = trunc i8 %130 to i1
  %132 = xor i1 %131, true
  %133 = xor i1 %132, true
  %134 = zext i1 %133 to i32
  %135 = sext i32 %134 to i64
  %136 = icmp ne i64 %135, 0
  br i1 %136, label %137, label %139

137:                                              ; preds = %129
  %138 = call i32 @H5CX_pop(i1 noundef zeroext true)
  store i8 0, ptr %6, align 1
  br label %139

139:                                              ; preds = %137, %129
  %140 = load i8, ptr %7, align 1
  %141 = trunc i8 %140 to i1
  %142 = xor i1 %141, true
  %143 = xor i1 %142, true
  %144 = zext i1 %143 to i32
  %145 = sext i32 %144 to i64
  %146 = icmp ne i64 %145, 0
  br i1 %146, label %147, label %149

147:                                              ; preds = %139
  %148 = call i32 @H5E_dump_api_stack()
  br label %149

149:                                              ; preds = %147, %139
  %150 = load i32, ptr %5, align 4
  ret i32 %150
}