; Function Attrs: nounwind uwtable
define range(i32 -1, -2147483648) i32 @H5Pisa_class(i64 noundef %0, i64 noundef %1) local_unnamed_addr #0 {
  %3 = load i8, ptr @H5_libinit_g, align 1
  %4 = trunc i8 %3 to i1
  %5 = load i8, ptr @H5_libterm_g, align 1
  %6 = trunc i8 %5 to i1
  %7 = select i1 %4, i1 true, i1 %6
  br i1 %7, label %15, label %8

8:                                                ; preds = %2
  %9 = tail call i32 @H5_init_library() #2
  %10 = icmp slt i32 %9, 0
  br i1 %10, label %11, label %15

11:                                               ; preds = %8
  %12 = load i64, ptr @H5E_FUNC_g, align 8
  %13 = load i64, ptr @H5E_CANTINIT_g, align 8
  %14 = tail call i32 (ptr, ptr, i32, i64, i64, ptr, ...) @H5E_printf_stack(ptr noundef nonnull @.str, ptr noundef nonnull @__func__.H5Pisa_class, i32 noundef 1063, i64 noundef %12, i64 noundef %13, ptr noundef nonnull @.str.1) #2
  br label %.thread24

15:                                               ; preds = %8, %2
  %16 = tail call i32 @H5CX_push() #2
  %17 = icmp slt i32 %16, 0
  br i1 %17, label %18, label %22

18:                                               ; preds = %15
  %19 = load i64, ptr @H5E_FUNC_g, align 8
  %20 = load i64, ptr @H5E_CANTSET_g, align 8
  %21 = tail call i32 (ptr, ptr, i32, i64, i64, ptr, ...) @H5E_printf_stack(ptr noundef nonnull @.str, ptr noundef nonnull @__func__.H5Pisa_class, i32 noundef 1063, i64 noundef %19, i64 noundef %20, ptr noundef nonnull @.str.2) #2
  br label %.thread24

22:                                               ; preds = %15
  %23 = tail call i32 @H5E_clear_stack() #2
  %24 = tail call i32 @H5I_get_type(i64 noundef %0) #2
  %.not = icmp eq i32 %24, 11
  br i1 %.not, label %29, label %25

25:                                               ; preds = %22
  %26 = load i64, ptr @H5E_ARGS_g, align 8
  %27 = load i64, ptr @H5E_BADTYPE_g, align 8
  %28 = tail call i32 (ptr, ptr, i32, i64, i64, ptr, ...) @H5E_printf_stack(ptr noundef nonnull @.str, ptr noundef nonnull @__func__.H5Pisa_class, i32 noundef 1067, i64 noundef %26, i64 noundef %27, ptr noundef nonnull @.str.18) #2
  br label %.thread30

29:                                               ; preds = %22
  %30 = tail call i32 @H5I_get_type(i64 noundef %1) #2
  %.not15 = icmp eq i32 %30, 10
  br i1 %.not15, label %35, label %31

31:                                               ; preds = %29
  %32 = load i64, ptr @H5E_ARGS_g, align 8
  %33 = load i64, ptr @H5E_BADTYPE_g, align 8
  %34 = tail call i32 (ptr, ptr, i32, i64, i64, ptr, ...) @H5E_printf_stack(ptr noundef nonnull @.str, ptr noundef nonnull @__func__.H5Pisa_class, i32 noundef 1069, i64 noundef %32, i64 noundef %33, ptr noundef nonnull @.str.25) #2
  br label %.thread30

35:                                               ; preds = %29
  %36 = tail call i32 @H5P_isa_class(i64 noundef %0, i64 noundef %1) #2
  %37 = icmp slt i32 %36, 0
  br i1 %37, label %38, label %43

38:                                               ; preds = %35
  %39 = load i64, ptr @H5E_PLIST_g, align 8
  %40 = load i64, ptr @H5E_CANTREGISTER_g, align 8
  %41 = tail call i32 (ptr, ptr, i32, i64, i64, ptr, ...) @H5E_printf_stack(ptr noundef nonnull @.str, ptr noundef nonnull @__func__.H5Pisa_class, i32 noundef 1073, i64 noundef %39, i64 noundef %40, ptr noundef nonnull @.str.40) #2
  br label %.thread30

.thread30:                                        ; preds = %38, %31, %25
  %42 = tail call i32 @H5CX_pop(i1 noundef zeroext true) #2
  br label %.thread24

43:                                               ; preds = %35
  %44 = tail call i32 @H5CX_pop(i1 noundef zeroext true) #2
  br label %46

.thread24:                                        ; preds = %18, %11, %.thread30
  %45 = tail call i32 @H5E_dump_api_stack() #2
  br label %46

46:                                               ; preds = %43, %.thread24
  %.0131927 = phi i32 [ -1, %.thread24 ], [ %36, %43 ]
  ret i32 %.0131927
}